; ModuleID = '31/787.c'
source_filename = "31/787.c"
target datalayout = "e-m:e-p270:32:32-p271:32:32-p272:64:64-i64:64-f80:128-n8:16:32:64-S128"
target triple = "x86_64-pc-linux-gnu"

%struct.student = type { [1000 x i8], %struct.student* }

@.str = private unnamed_addr constant [4 x i8] c"end\00", align 1

; Function Attrs: noinline nounwind uwtable
define dso_local i32 @main() #0 {
  %1 = alloca i32, align 4
  %2 = alloca [1000 x %struct.student], align 16
  %3 = alloca %struct.student*, align 8
  %4 = alloca %struct.student*, align 8
  %5 = alloca i32, align 4
  %6 = alloca i32, align 4
  %7 = alloca i8, align 1
  store i32 0, i32* %1, align 4
  store i32 0, i32* %5, align 4
  store i32 0, i32* %5, align 4
  br label %8

8:                                                ; preds = %24, %0
  %9 = load i32, i32* %5, align 4
  %10 = sext i32 %9 to i64
  %11 = getelementptr inbounds [1000 x %struct.student], [1000 x %struct.student]* %2, i64 0, i64 %10
  %12 = getelementptr inbounds %struct.student, %struct.student* %11, i32 0, i32 0
  %13 = getelementptr inbounds [1000 x i8], [1000 x i8]* %12, i64 0, i64 0
  %14 = call i32 (i8*, ...) bitcast (i32 (...)* @gets to i32 (i8*, ...)*)(i8* %13)
  %15 = load i32, i32* %5, align 4
  %16 = sext i32 %15 to i64
  %17 = getelementptr inbounds [1000 x %struct.student], [1000 x %struct.student]* %2, i64 0, i64 %16
  %18 = getelementptr inbounds %struct.student, %struct.student* %17, i32 0, i32 0
  %19 = getelementptr inbounds [1000 x i8], [1000 x i8]* %18, i64 0, i64 0
  %20 = call i32 @strcmp(i8* %19, i8* getelementptr inbounds ([4 x i8], [4 x i8]* @.str, i64 0, i64 0)) #3
  %21 = icmp eq i32 %20, 0
  br i1 %21, label %22, label %23

22:                                               ; preds = %8
  br label %27

23:                                               ; preds = %8
  br label %24

24:                                               ; preds = %23
  %25 = load i32, i32* %5, align 4
  %26 = add nsw i32 %25, 1
  store i32 %26, i32* %5, align 4
  br label %8

27:                                               ; preds = %22
  %28 = load i32, i32* %5, align 4
  store i32 %28, i32* %6, align 4
  %29 = load i32, i32* %6, align 4
  %30 = sub nsw i32 %29, 1
  %31 = sext i32 %30 to i64
  %32 = getelementptr inbounds [1000 x %struct.student], [1000 x %struct.student]* %2, i64 0, i64 %31
  store %struct.student* %32, %struct.student** %4, align 8
  %33 = load i32, i32* %6, align 4
  %34 = sub nsw i32 %33, 1
  store i32 %34, i32* %5, align 4
  br label %35

35:                                               ; preds = %47, %27
  %36 = load i32, i32* %5, align 4
  %37 = icmp sge i32 %36, 1
  br i1 %37, label %38, label %50

38:                                               ; preds = %35
  %39 = load i32, i32* %5, align 4
  %40 = sub nsw i32 %39, 1
  %41 = sext i32 %40 to i64
  %42 = getelementptr inbounds [1000 x %struct.student], [1000 x %struct.student]* %2, i64 0, i64 %41
  %43 = load i32, i32* %5, align 4
  %44 = sext i32 %43 to i64
  %45 = getelementptr inbounds [1000 x %struct.student], [1000 x %struct.student]* %2, i64 0, i64 %44
  %46 = getelementptr inbounds %struct.student, %struct.student* %45, i32 0, i32 1
  store %struct.student* %42, %struct.student** %46, align 8
  br label %47

47:                                               ; preds = %38
  %48 = load i32, i32* %5, align 4
  %49 = add nsw i32 %48, -1
  store i32 %49, i32* %5, align 4
  br label %35

50:                                               ; preds = %35
  %51 = getelementptr inbounds [1000 x %struct.student], [1000 x %struct.student]* %2, i64 0, i64 0
  %52 = getelementptr inbounds %struct.student, %struct.student* %51, i32 0, i32 1
  store %struct.student* null, %struct.student** %52, align 8
  %53 = load %struct.student*, %struct.student** %4, align 8
  store %struct.student* %53, %struct.student** %3, align 8
  br label %54

54:                                               ; preds = %57, %50
  %55 = load %struct.student*, %struct.student** %3, align 8
  %56 = icmp ne %struct.student* %55, null
  br i1 %56, label %57, label %65

57:                                               ; preds = %54
  %58 = load %struct.student*, %struct.student** %3, align 8
  %59 = getelementptr inbounds %struct.student, %struct.student* %58, i32 0, i32 0
  %60 = getelementptr inbounds [1000 x i8], [1000 x i8]* %59, i64 0, i64 0
  %61 = call i32 @puts(i8* %60)
  %62 = load %struct.student*, %struct.student** %3, align 8
  %63 = getelementptr inbounds %struct.student, %struct.student* %62, i32 0, i32 1
  %64 = load %struct.student*, %struct.student** %63, align 8
  store %struct.student* %64, %struct.student** %3, align 8
  br label %54

65:                                               ; preds = %54
  ret i32 0
}

declare dso_local i32 @gets(...) #1

; Function Attrs: nounwind readonly
declare dso_local i32 @strcmp(i8*, i8*) #2

declare dso_local i32 @puts(i8*) #1


!llvm.module.flags = !{!0}
!llvm.ident = !{!1}

!0 = !{i32 1, !"wchar_size", i32 4}
!1 = !{!"clang version 10.0.0-4ubuntu1 "}
